; Function Attrs: mustprogress uwtable
define internal void @_ZN12_GLOBAL__N_120DOCTEST_ANON_FUNC_52Ev() #5 personality ptr @__gxx_personality_v0 {
  %1 = alloca %"struct.(anonymous namespace)::DOCTEST_ANON_CLASS_51", align 8
  call void @_ZN4Luau7FixtureC2Ebb(ptr noundef nonnull align 8 dereferenceable(2232) %1, i1 noundef zeroext true, i1 noundef zeroext false)
  %2 = getelementptr inbounds i8, ptr %1, i64 2232
  %3 = getelementptr inbounds i8, ptr %1, i64 2240
  store ptr @_ZN5FFlag37DebugLuauDeferredConstraintResolutionE, ptr %2, align 8
  %4 = load i8, ptr @_ZN5FFlag37DebugLuauDeferredConstraintResolutionE, align 8
  %5 = and i8 %4, 1
  store i8 %5, ptr %3, align 8
  store i8 1, ptr @_ZN5FFlag37DebugLuauDeferredConstraintResolutionE, align 8
  invoke fastcc void @_ZN12_GLOBAL__N_121DOCTEST_ANON_CLASS_511fEv(ptr noundef nonnull align 8 dereferenceable(2248) %1)
          to label %6 unwind label %11

6:                                                ; preds = %0
  %7 = load ptr, ptr %2, align 8
  %.not.i.i.i = icmp eq ptr %7, null
  br i1 %.not.i.i.i, label %_ZN12_GLOBAL__N_121DOCTEST_ANON_CLASS_51D2Ev.exit, label %8

8:                                                ; preds = %6
  %9 = load i8, ptr %3, align 8
  %10 = and i8 %9, 1
  store i8 %10, ptr %7, align 8
  br label %_ZN12_GLOBAL__N_121DOCTEST_ANON_CLASS_51D2Ev.exit

_ZN12_GLOBAL__N_121DOCTEST_ANON_CLASS_51D2Ev.exit: ; preds = %6, %8
  call void @_ZN4Luau7FixtureD2Ev(ptr noundef nonnull align 8 dereferenceable(2232) %1) #18
  ret void

11:                                               ; preds = %0
  %12 = landingpad { ptr, i32 }
          cleanup
  %13 = load ptr, ptr %2, align 8
  %.not.i.i.i1 = icmp eq ptr %13, null
  br i1 %.not.i.i.i1, label %_ZN12_GLOBAL__N_121DOCTEST_ANON_CLASS_51D2Ev.exit2, label %14

14:                                               ; preds = %11
  %15 = load i8, ptr %3, align 8
  %16 = and i8 %15, 1
  store i8 %16, ptr %13, align 8
  br label %_ZN12_GLOBAL__N_121DOCTEST_ANON_CLASS_51D2Ev.exit2

_ZN12_GLOBAL__N_121DOCTEST_ANON_CLASS_51D2Ev.exit2: ; preds = %11, %14
  call void @_ZN4Luau7FixtureD2Ev(ptr noundef nonnull align 8 dereferenceable(2232) %1) #18
  resume { ptr, i32 } %12
}